target datalayout = "e-m:e-p270:32:32-p271:32:32-p272:64:64-i64:64-i128:128-f80:128-n8:16:32:64-S128"
target triple = "x86_64-pc-linux-gnu"

%struct.Kit_DsdNtk_t_ = type { i16, i16, i16, i16, ptr, ptr, ptr }
%struct.Kit_DsdObj_t_ = type { i32, [0 x i16] }

; Function Attrs: inlinehint nounwind uwtable
define internal i32 @Abc_Lit2Var(i32 noundef %0) #4 {
  %2 = alloca i32, align 4
  store i32 %0, ptr %2, align 4, !tbaa !3
  %3 = load i32, ptr %2, align 4, !tbaa !3
  %4 = ashr i32 %3, 1
  ret i32 %4
}

; Function Attrs: inlinehint nounwind uwtable
define internal i32 @Kit_DsdLitIsLeaf(ptr noundef %0, i32 noundef %1) #4 {
  %3 = alloca ptr, align 8
  %4 = alloca i32, align 4
  %5 = alloca i32, align 4
  store ptr %0, ptr %3, align 8, !tbaa !37
  store i32 %1, ptr %4, align 4, !tbaa !3
  call void @llvm.lifetime.start.p0(i64 4, ptr %5) #9
  %6 = load i32, ptr %4, align 4, !tbaa !3
  %7 = call i32 @Abc_Lit2Var(i32 noundef %6)
  store i32 %7, ptr %5, align 4, !tbaa !3
  %8 = load i32, ptr %5, align 4, !tbaa !3
  %9 = load ptr, ptr %3, align 8, !tbaa !37
  %10 = getelementptr inbounds nuw %struct.Kit_DsdNtk_t_, ptr %9, i32 0, i32 0
  %11 = load i16, ptr %10, align 8, !tbaa !41
  %12 = zext i16 %11 to i32
  %13 = icmp slt i32 %8, %12
  %14 = zext i1 %13 to i32
  call void @llvm.lifetime.end.p0(i64 4, ptr %5) #9
  ret i32 %14
}

; Function Attrs: nounwind uwtable
define i32 @Kit_DsdCofactoringGetVars(ptr noundef %0, i32 noundef %1, ptr noundef %2) #0 {
  %4 = alloca ptr, align 8
  %5 = alloca i32, align 4
  %6 = alloca ptr, align 8
  %7 = alloca ptr, align 8
  %8 = alloca i32, align 4
  %9 = alloca i32, align 4
  %10 = alloca i32, align 4
  %11 = alloca i32, align 4
  %12 = alloca i32, align 4
  %13 = alloca i32, align 4
  %14 = alloca i32, align 4
  store ptr %0, ptr %4, align 8, !tbaa !142
  store i32 %1, ptr %5, align 4, !tbaa !3
  store ptr %2, ptr %6, align 8, !tbaa !25
  call void @llvm.lifetime.start.p0(i64 8, ptr %7) #9
  call void @llvm.lifetime.start.p0(i64 4, ptr %8) #9
  call void @llvm.lifetime.start.p0(i64 4, ptr %9) #9
  call void @llvm.lifetime.start.p0(i64 4, ptr %10) #9
  call void @llvm.lifetime.start.p0(i64 4, ptr %11) #9
  call void @llvm.lifetime.start.p0(i64 4, ptr %12) #9
  call void @llvm.lifetime.start.p0(i64 4, ptr %13) #9
  call void @llvm.lifetime.start.p0(i64 4, ptr %14) #9
  store i32 0, ptr %13, align 4, !tbaa !3
  store i32 0, ptr %9, align 4, !tbaa !3
  br label %15

15:                                               ; preds = %126, %3
  %16 = load i32, ptr %9, align 4, !tbaa !3
  %17 = load i32, ptr %5, align 4, !tbaa !3
  %18 = icmp slt i32 %16, %17
  br i1 %18, label %19, label %129

19:                                               ; preds = %15
  store i32 0, ptr %10, align 4, !tbaa !3
  br label %20

20:                                               ; preds = %122, %19
  %21 = load i32, ptr %10, align 4, !tbaa !3
  %22 = load ptr, ptr %4, align 8, !tbaa !142
  %23 = load i32, ptr %9, align 4, !tbaa !3
  %24 = sext i32 %23 to i64
  %25 = getelementptr inbounds ptr, ptr %22, i64 %24
  %26 = load ptr, ptr %25, align 8, !tbaa !37
  %27 = getelementptr inbounds nuw %struct.Kit_DsdNtk_t_, ptr %26, i32 0, i32 2
  %28 = load i16, ptr %27, align 4, !tbaa !45
  %29 = zext i16 %28 to i32
  %30 = icmp slt i32 %21, %29
  br i1 %30, label %31, label %44

31:                                               ; preds = %20
  %32 = load ptr, ptr %4, align 8, !tbaa !142
  %33 = load i32, ptr %9, align 4, !tbaa !3
  %34 = sext i32 %33 to i64
  %35 = getelementptr inbounds ptr, ptr %32, i64 %34
  %36 = load ptr, ptr %35, align 8, !tbaa !37
  %37 = getelementptr inbounds nuw %struct.Kit_DsdNtk_t_, ptr %36, i32 0, i32 6
  %38 = load ptr, ptr %37, align 8, !tbaa !47
  %39 = load i32, ptr %10, align 4, !tbaa !3
  %40 = sext i32 %39 to i64
  %41 = getelementptr inbounds ptr, ptr %38, i64 %40
  %42 = load ptr, ptr %41, align 8, !tbaa !39
  store ptr %42, ptr %7, align 8, !tbaa !39
  %43 = icmp ne ptr %42, null
  br label %44

44:                                               ; preds = %31, %20
  %45 = phi i1 [ false, %20 ], [ %43, %31 ]
  br i1 %45, label %46, label %125

46:                                               ; preds = %44
  %47 = load ptr, ptr %7, align 8, !tbaa !39
  %48 = load i32, ptr %47, align 4
  %49 = lshr i32 %48, 6
  %50 = and i32 %49, 7
  %51 = icmp ne i32 %50, 5
  br i1 %51, label %52, label %53

52:                                               ; preds = %46
  br label %122

53:                                               ; preds = %46
  %54 = load ptr, ptr %7, align 8, !tbaa !39
  %55 = load i32, ptr %54, align 4
  %56 = lshr i32 %55, 26
  %57 = icmp eq i32 %56, 3
  br i1 %57, label %58, label %59

58:                                               ; preds = %53
  br label %122

59:                                               ; preds = %53
  store i32 0, ptr %8, align 4, !tbaa !3
  br label %60

60:                                               ; preds = %118, %59
  %61 = load i32, ptr %8, align 4, !tbaa !3
  %62 = load ptr, ptr %7, align 8, !tbaa !39
  %63 = load i32, ptr %62, align 4
  %64 = lshr i32 %63, 26
  %65 = icmp ult i32 %61, %64
  br i1 %65, label %66, label %74

66:                                               ; preds = %60
  %67 = load ptr, ptr %7, align 8, !tbaa !39
  %68 = getelementptr inbounds nuw %struct.Kit_DsdObj_t_, ptr %67, i32 0, i32 1
  %69 = load i32, ptr %8, align 4, !tbaa !3
  %70 = zext i32 %69 to i64
  %71 = getelementptr inbounds nuw [0 x i16], ptr %68, i64 0, i64 %70
  %72 = load i16, ptr %71, align 2, !tbaa !58
  %73 = zext i16 %72 to i32
  store i32 %73, ptr %14, align 4, !tbaa !3
  br label %74

74:                                               ; preds = %66, %60
  %75 = phi i1 [ false, %60 ], [ true, %66 ]
  br i1 %75, label %76, label %121

76:                                               ; preds = %74
  %77 = load ptr, ptr %4, align 8, !tbaa !142
  %78 = load i32, ptr %9, align 4, !tbaa !3
  %79 = sext i32 %78 to i64
  %80 = getelementptr inbounds ptr, ptr %77, i64 %79
  %81 = load ptr, ptr %80, align 8, !tbaa !37
  %82 = load i32, ptr %14, align 4, !tbaa !3
  %83 = call i32 @Kit_DsdLitIsLeaf(ptr noundef %81, i32 noundef %82)
  %84 = icmp ne i32 %83, 0
  br i1 %84, label %86, label %85

85:                                               ; preds = %76
  br label %118

86:                                               ; preds = %76
  %87 = load i32, ptr %14, align 4, !tbaa !3
  %88 = call i32 @Abc_Lit2Var(i32 noundef %87)
  store i32 %88, ptr %12, align 4, !tbaa !3
  store i32 0, ptr %11, align 4, !tbaa !3
  br label %89

89:                                               ; preds = %103, %86
  %90 = load i32, ptr %11, align 4, !tbaa !3
  %91 = load i32, ptr %13, align 4, !tbaa !3
  %92 = icmp slt i32 %90, %91
  br i1 %92, label %93, label %106

93:                                               ; preds = %89
  %94 = load ptr, ptr %6, align 8, !tbaa !25
  %95 = load i32, ptr %11, align 4, !tbaa !3
  %96 = sext i32 %95 to i64
  %97 = getelementptr inbounds i32, ptr %94, i64 %96
  %98 = load i32, ptr %97, align 4, !tbaa !3
  %99 = load i32, ptr %12, align 4, !tbaa !3
  %100 = icmp eq i32 %98, %99
  br i1 %100, label %101, label %102

101:                                              ; preds = %93
  br label %106

102:                                              ; preds = %93
  br label %103

103:                                              ; preds = %102
  %104 = load i32, ptr %11, align 4, !tbaa !3
  %105 = add nsw i32 %104, 1
  store i32 %105, ptr %11, align 4, !tbaa !3
  br label %89, !llvm.loop !144

106:                                              ; preds = %101, %89
  %107 = load i32, ptr %11, align 4, !tbaa !3
  %108 = load i32, ptr %13, align 4, !tbaa !3
  %109 = icmp eq i32 %107, %108
  br i1 %109, label %110, label %117

110:                                              ; preds = %106
  %111 = load i32, ptr %12, align 4, !tbaa !3
  %112 = load ptr, ptr %6, align 8, !tbaa !25
  %113 = load i32, ptr %13, align 4, !tbaa !3
  %114 = add nsw i32 %113, 1
  store i32 %114, ptr %13, align 4, !tbaa !3
  %115 = sext i32 %113 to i64
  %116 = getelementptr inbounds i32, ptr %112, i64 %115
  store i32 %111, ptr %116, align 4, !tbaa !3
  br label %117

117:                                              ; preds = %110, %106
  br label %118

118:                                              ; preds = %117, %85
  %119 = load i32, ptr %8, align 4, !tbaa !3
  %120 = add i32 %119, 1
  store i32 %120, ptr %8, align 4, !tbaa !3
  br label %60, !llvm.loop !145

121:                                              ; preds = %74
  br label %122

122:                                              ; preds = %121, %58, %52
  %123 = load i32, ptr %10, align 4, !tbaa !3
  %124 = add nsw i32 %123, 1
  store i32 %124, ptr %10, align 4, !tbaa !3
  br label %20, !llvm.loop !146

125:                                              ; preds = %44
  br label %126

126:                                              ; preds = %125
  %127 = load i32, ptr %9, align 4, !tbaa !3
  %128 = add nsw i32 %127, 1
  store i32 %128, ptr %9, align 4, !tbaa !3
  br label %15, !llvm.loop !147

129:                                              ; preds = %15
  %130 = load i32, ptr %13, align 4, !tbaa !3
  call void @llvm.lifetime.end.p0(i64 4, ptr %14) #9
  call void @llvm.lifetime.end.p0(i64 4, ptr %13) #9
  call void @llvm.lifetime.end.p0(i64 4, ptr %12) #9
  call void @llvm.lifetime.end.p0(i64 4, ptr %11) #9
  call void @llvm.lifetime.end.p0(i64 4, ptr %10) #9
  call void @llvm.lifetime.end.p0(i64 4, ptr %9) #9
  call void @llvm.lifetime.end.p0(i64 4, ptr %8) #9
  call void @llvm.lifetime.end.p0(i64 8, ptr %7) #9
  ret i32 %130
}