; Function Attrs: nofree norecurse nosync nounwind memory(read, argmem: readwrite, inaccessiblemem: none) uwtable
define i32 @Kit_DsdCofactoringGetVars(ptr noundef readonly captures(none) %0, i32 noundef %1, ptr noundef captures(none) %2) local_unnamed_addr #19 {
  %4 = icmp sgt i32 %1, 0
  br i1 %4, label %.preheader42.preheader, label %._crit_edge58

.preheader42.preheader:                           ; preds = %3
  %wide.trip.count74 = zext nneg i32 %1 to i64
  br label %.preheader42

.preheader42:                                     ; preds = %.preheader42.preheader, %.critedge
  %indvars.iv71 = phi i64 [ 0, %.preheader42.preheader ], [ %indvars.iv.next72, %.critedge ]
  %.03457 = phi i32 [ 0, %.preheader42.preheader ], [ %.1.lcssa, %.critedge ]
  %5 = getelementptr inbounds nuw ptr, ptr %0, i64 %indvars.iv71
  %6 = load ptr, ptr %5, align 8, !tbaa !130
  %7 = getelementptr inbounds nuw i8, ptr %6, i64 4
  %8 = load i16, ptr %7, align 4, !tbaa !38
  %.not60 = icmp eq i16 %8, 0
  br i1 %.not60, label %.critedge, label %.lr.ph52

.lr.ph52:                                         ; preds = %.preheader42
  %9 = getelementptr inbounds nuw i8, ptr %6, i64 24
  %10 = load ptr, ptr %9, align 8, !tbaa !40
  %wide.trip.count69 = zext i16 %8 to i64
  br label %11

11:                                               ; preds = %.lr.ph52, %.critedge2
  %indvars.iv66 = phi i64 [ 0, %.lr.ph52 ], [ %indvars.iv.next67, %.critedge2 ]
  %.151 = phi i32 [ %.03457, %.lr.ph52 ], [ %.2, %.critedge2 ]
  %12 = getelementptr inbounds nuw ptr, ptr %10, i64 %indvars.iv66
  %13 = load ptr, ptr %12, align 8, !tbaa !41
  %.not = icmp eq ptr %13, null
  br i1 %.not, label %.critedge, label %14

14:                                               ; preds = %11
  %15 = load i32, ptr %13, align 4
  %16 = and i32 %15, 448
  %.not39 = icmp ne i32 %16, 320
  %.mask = and i32 %15, -67108864
  %17 = icmp eq i32 %.mask, 201326592
  %or.cond = or i1 %.not39, %17
  %.not61 = icmp ult i32 %15, 67108864
  %or.cond78 = or i1 %or.cond, %.not61
  br i1 %or.cond78, label %.critedge2, label %.lr.ph48

.lr.ph48:                                         ; preds = %14
  %18 = getelementptr inbounds nuw i8, ptr %13, i64 4
  %.val = load i16, ptr %6, align 8, !tbaa !34
  br label %19

19:                                               ; preds = %.lr.ph48, %36
  %20 = phi i32 [ %15, %.lr.ph48 ], [ %37, %36 ]
  %indvars.iv63 = phi i64 [ 0, %.lr.ph48 ], [ %indvars.iv.next64, %36 ]
  %.346 = phi i32 [ %.151, %.lr.ph48 ], [ %.4, %36 ]
  %21 = getelementptr inbounds nuw [0 x i16], ptr %18, i64 0, i64 %indvars.iv63
  %22 = load i16, ptr %21, align 2, !tbaa !49
  %23 = lshr i16 %22, 1
  %24 = zext nneg i16 %23 to i32
  %.not41 = icmp ult i16 %23, %.val
  br i1 %.not41, label %25, label %36

25:                                               ; preds = %19
  %26 = icmp sgt i32 %.346, 0
  br i1 %26, label %.lr.ph.preheader, label %._crit_edge

.lr.ph.preheader:                                 ; preds = %25
  %wide.trip.count = zext nneg i32 %.346 to i64
  br label %.lr.ph

.lr.ph:                                           ; preds = %.lr.ph.preheader, %30
  %indvars.iv = phi i64 [ 0, %.lr.ph.preheader ], [ %indvars.iv.next, %30 ]
  %27 = getelementptr inbounds nuw i32, ptr %2, i64 %indvars.iv
  %28 = load i32, ptr %27, align 4, !tbaa !20
  %29 = icmp eq i32 %28, %24
  br i1 %29, label %._crit_edge.loopexit, label %30

30:                                               ; preds = %.lr.ph
  %indvars.iv.next = add nuw nsw i64 %indvars.iv, 1
  %exitcond.not = icmp eq i64 %indvars.iv.next, %wide.trip.count
  br i1 %exitcond.not, label %._crit_edge.thread, label %.lr.ph, !llvm.loop !132

._crit_edge.loopexit:                             ; preds = %.lr.ph
  %31 = trunc nuw nsw i64 %indvars.iv to i32
  br label %._crit_edge

._crit_edge:                                      ; preds = %._crit_edge.loopexit, %25
  %.036.lcssa = phi i32 [ 0, %25 ], [ %31, %._crit_edge.loopexit ]
  %32 = icmp eq i32 %.036.lcssa, %.346
  br i1 %32, label %._crit_edge.thread, label %36

._crit_edge.thread:                               ; preds = %30, %._crit_edge
  %33 = add nsw i32 %.346, 1
  %34 = sext i32 %.346 to i64
  %35 = getelementptr inbounds i32, ptr %2, i64 %34
  store i32 %24, ptr %35, align 4, !tbaa !20
  %.pre = load i32, ptr %13, align 4
  br label %36

36:                                               ; preds = %._crit_edge, %._crit_edge.thread, %19
  %37 = phi i32 [ %.pre, %._crit_edge.thread ], [ %20, %._crit_edge ], [ %20, %19 ]
  %.4 = phi i32 [ %33, %._crit_edge.thread ], [ %.346, %._crit_edge ], [ %.346, %19 ]
  %indvars.iv.next64 = add nuw nsw i64 %indvars.iv63, 1
  %38 = lshr i32 %37, 26
  %39 = zext nneg i32 %38 to i64
  %40 = icmp samesign ult i64 %indvars.iv.next64, %39
  br i1 %40, label %19, label %.critedge2, !llvm.loop !133

.critedge2:                                       ; preds = %36, %14
  %.2 = phi i32 [ %.151, %14 ], [ %.4, %36 ]
  %indvars.iv.next67 = add nuw nsw i64 %indvars.iv66, 1
  %exitcond70.not = icmp eq i64 %indvars.iv.next67, %wide.trip.count69
  br i1 %exitcond70.not, label %.critedge, label %11, !llvm.loop !134

.critedge:                                        ; preds = %.critedge2, %11, %.preheader42
  %.1.lcssa = phi i32 [ %.03457, %.preheader42 ], [ %.151, %11 ], [ %.2, %.critedge2 ]
  %indvars.iv.next72 = add nuw nsw i64 %indvars.iv71, 1
  %exitcond75.not = icmp eq i64 %indvars.iv.next72, %wide.trip.count74
  br i1 %exitcond75.not, label %._crit_edge58, label %.preheader42, !llvm.loop !135

._crit_edge58:                                    ; preds = %.critedge, %3
  %.034.lcssa = phi i32 [ 0, %3 ], [ %.1.lcssa, %.critedge ]
  ret i32 %.034.lcssa
}